target datalayout = "e-m:e-p270:32:32-p271:32:32-p272:64:64-i64:64-i128:128-f80:128-n8:16:32:64-S128"
target triple = "x86_64-unknown-linux-gnu"

%class.svector.13 = type { %class.vector.14 }
%class.vector.14 = type { ptr }
%"class.smt::theory_bv" = type { %"class.smt::theory.base", %"struct.smt::theory_bv_stats", %class.bv_util, %class.arith_util, %class.bit_blaster, %class.trail_stack, %class.union_find, %class.vector.5, %class.ptr_vector.1, %class.svector, %class.vector.6, %class.ptr_vector.7, %class.ptr_vector, %class.map, %class.vector.9, [256 x i8], %class.svector.10, i32, %class.vector.12, [256 x i8], %class.svector, %class.svector, %class.svector.13, %class.svector.15, i8, [2 x %class.svector.17], ptr }
%"class.smt::theory.base" = type <{ ptr, i32, [4 x i8], ptr, ptr, %class.ptr_vector, %class.svector, i32, i8 }>
%"struct.smt::theory_bv_stats" = type { i32, i32, i32, i32, i32, i32 }
%class.bv_util = type { %class.bv_recognizers, ptr, ptr }
%class.bv_recognizers = type { i32 }
%class.arith_util = type { ptr, ptr }
%class.bit_blaster = type { %class.bit_blaster_tpl, %class.bv_util, %class.bool_rewriter }
%class.bit_blaster_tpl = type { %class.bit_blaster_cfg, i64 }
%class.bit_blaster_cfg = type { ptr, ptr, ptr }
%class.bool_rewriter = type { ptr, i8, i8, i8, i8, i8, i8, i32, i8, i32, i32, i8, %class.ptr_vector.1, %class.ptr_vector.1, %class.svector, %class.svector }
%class.trail_stack = type { %class.ptr_vector.3, %class.svector, %class.region }
%class.ptr_vector.3 = type { %class.vector.4 }
%class.vector.4 = type { ptr }
%class.region = type { ptr, ptr, ptr, ptr, ptr }
%class.union_find = type { ptr, ptr, %class.svector, %class.svector, %class.svector, %"class.union_find<smt::theory_bv>::mk_var_trail" }
%"class.union_find<smt::theory_bv>::mk_var_trail" = type { %class.trail, ptr }
%class.trail = type { ptr }
%class.vector.5 = type { ptr }
%class.ptr_vector.1 = type { %class.vector.2 }
%class.vector.2 = type { ptr }
%class.vector.6 = type { ptr }
%class.ptr_vector.7 = type { %class.vector.8 }
%class.vector.8 = type { ptr }
%class.ptr_vector = type { %class.vector }
%class.vector = type { ptr }
%class.map = type { %class.table2map }
%class.table2map = type { %class.core_hashtable }
%class.core_hashtable = type <{ %"struct.table2map<default_map_entry<std::pair<rational, unsigned int>, int>, pair_hash<obj_hash<rational>, unsigned_hash>, default_eq<std::pair<rational, unsigned int>>>::entry_hash_proc", [7 x i8], ptr, i32, i32, i32, [4 x i8] }>
%"struct.table2map<default_map_entry<std::pair<rational, unsigned int>, int>, pair_hash<obj_hash<rational>, unsigned_hash>, default_eq<std::pair<rational, unsigned int>>>::entry_hash_proc" = type { %struct.pair_hash }
%struct.pair_hash = type { %struct.unsigned_hash }
%struct.unsigned_hash = type { i8 }
%class.vector.9 = type { ptr }
%class.svector.10 = type { %class.vector.11 }
%class.vector.11 = type { ptr }
%class.vector.12 = type { ptr }
%class.svector = type { %class.vector.0 }
%class.vector.0 = type { ptr }
%class.svector.15 = type { %class.vector.16 }
%class.vector.16 = type { ptr }
%class.svector.17 = type { %class.vector.18 }
%class.vector.18 = type { ptr }

@.str.26 = private unnamed_addr constant [13 x i8] c"bv conflicts\00", align 1
@.str.27 = private unnamed_addr constant [10 x i8] c"bv diseqs\00", align 1
@.str.28 = private unnamed_addr constant [18 x i8] c"bv dynamic diseqs\00", align 1
@.str.29 = private unnamed_addr constant [12 x i8] c"bv bit2core\00", align 1
@.str.30 = private unnamed_addr constant [12 x i8] c"bv->core eq\00", align 1
@.str.31 = private unnamed_addr constant [15 x i8] c"bv dynamic eqs\00", align 1

; Function Attrs: mustprogress uwtable
define hidden void @_ZNK3smt9theory_bv18collect_statisticsER10statistics(ptr noundef nonnull align 8 dereferenceable(1048) %this, ptr noundef nonnull align 8 dereferenceable(16) %st) unnamed_addr #5 align 2 {
entry:
  %this.addr = alloca ptr, align 8
  %st.addr = alloca ptr, align 8
  store ptr %this, ptr %this.addr, align 8
  store ptr %st, ptr %st.addr, align 8
  %this1 = load ptr, ptr %this.addr, align 8
  %0 = load ptr, ptr %st.addr, align 8
  %m_stats = getelementptr inbounds %"class.smt::theory_bv", ptr %this1, i32 0, i32 1
  %m_num_conflicts = getelementptr inbounds %"struct.smt::theory_bv_stats", ptr %m_stats, i32 0, i32 4
  %1 = load i32, ptr %m_num_conflicts, align 8
  call void @_ZN10statistics6updateEPKcj(ptr noundef nonnull align 8 dereferenceable(16) %0, ptr noundef @.str.26, i32 noundef %1)
  %2 = load ptr, ptr %st.addr, align 8
  %m_stats2 = getelementptr inbounds %"class.smt::theory_bv", ptr %this1, i32 0, i32 1
  %m_num_diseq_static = getelementptr inbounds %"struct.smt::theory_bv_stats", ptr %m_stats2, i32 0, i32 0
  %3 = load i32, ptr %m_num_diseq_static, align 8
  call void @_ZN10statistics6updateEPKcj(ptr noundef nonnull align 8 dereferenceable(16) %2, ptr noundef @.str.27, i32 noundef %3)
  %4 = load ptr, ptr %st.addr, align 8
  %m_stats3 = getelementptr inbounds %"class.smt::theory_bv", ptr %this1, i32 0, i32 1
  %m_num_diseq_dynamic = getelementptr inbounds %"struct.smt::theory_bv_stats", ptr %m_stats3, i32 0, i32 1
  %5 = load i32, ptr %m_num_diseq_dynamic, align 4
  call void @_ZN10statistics6updateEPKcj(ptr noundef nonnull align 8 dereferenceable(16) %4, ptr noundef @.str.28, i32 noundef %5)
  %6 = load ptr, ptr %st.addr, align 8
  %m_stats4 = getelementptr inbounds %"class.smt::theory_bv", ptr %this1, i32 0, i32 1
  %m_num_bit2core = getelementptr inbounds %"struct.smt::theory_bv_stats", ptr %m_stats4, i32 0, i32 2
  %7 = load i32, ptr %m_num_bit2core, align 8
  call void @_ZN10statistics6updateEPKcj(ptr noundef nonnull align 8 dereferenceable(16) %6, ptr noundef @.str.29, i32 noundef %7)
  %8 = load ptr, ptr %st.addr, align 8
  %m_stats5 = getelementptr inbounds %"class.smt::theory_bv", ptr %this1, i32 0, i32 1
  %m_num_th2core_eq = getelementptr inbounds %"struct.smt::theory_bv_stats", ptr %m_stats5, i32 0, i32 3
  %9 = load i32, ptr %m_num_th2core_eq, align 4
  call void @_ZN10statistics6updateEPKcj(ptr noundef nonnull align 8 dereferenceable(16) %8, ptr noundef @.str.30, i32 noundef %9)
  %10 = load ptr, ptr %st.addr, align 8
  %m_stats6 = getelementptr inbounds %"class.smt::theory_bv", ptr %this1, i32 0, i32 1
  %m_num_eq_dynamic = getelementptr inbounds %"struct.smt::theory_bv_stats", ptr %m_stats6, i32 0, i32 5
  %11 = load i32, ptr %m_num_eq_dynamic, align 4
  call void @_ZN10statistics6updateEPKcj(ptr noundef nonnull align 8 dereferenceable(16) %10, ptr noundef @.str.31, i32 noundef %11)
  ret void
}