; Function Attrs: mustprogress uwtable
define hidden void @_ZNK3smt9theory_bv18collect_statisticsER10statistics(ptr nocapture noundef nonnull readonly align 8 dereferenceable(1048) %this, ptr noundef nonnull align 8 dereferenceable(16) %st) unnamed_addr #3 align 2 {
entry:
  %m_stats = getelementptr inbounds i8, ptr %this, i64 56
  %m_num_conflicts = getelementptr inbounds i8, ptr %this, i64 72
  %0 = load i32, ptr %m_num_conflicts, align 8
  tail call void @_ZN10statistics6updateEPKcj(ptr noundef nonnull align 8 dereferenceable(16) %st, ptr noundef nonnull @.str.26, i32 noundef %0)
  %1 = load i32, ptr %m_stats, align 8
  tail call void @_ZN10statistics6updateEPKcj(ptr noundef nonnull align 8 dereferenceable(16) %st, ptr noundef nonnull @.str.27, i32 noundef %1)
  %m_num_diseq_dynamic = getelementptr inbounds i8, ptr %this, i64 60
  %2 = load i32, ptr %m_num_diseq_dynamic, align 4
  tail call void @_ZN10statistics6updateEPKcj(ptr noundef nonnull align 8 dereferenceable(16) %st, ptr noundef nonnull @.str.28, i32 noundef %2)
  %m_num_bit2core = getelementptr inbounds i8, ptr %this, i64 64
  %3 = load i32, ptr %m_num_bit2core, align 8
  tail call void @_ZN10statistics6updateEPKcj(ptr noundef nonnull align 8 dereferenceable(16) %st, ptr noundef nonnull @.str.29, i32 noundef %3)
  %m_num_th2core_eq = getelementptr inbounds i8, ptr %this, i64 68
  %4 = load i32, ptr %m_num_th2core_eq, align 4
  tail call void @_ZN10statistics6updateEPKcj(ptr noundef nonnull align 8 dereferenceable(16) %st, ptr noundef nonnull @.str.30, i32 noundef %4)
  %m_num_eq_dynamic = getelementptr inbounds i8, ptr %this, i64 76
  %5 = load i32, ptr %m_num_eq_dynamic, align 4
  tail call void @_ZN10statistics6updateEPKcj(ptr noundef nonnull align 8 dereferenceable(16) %st, ptr noundef nonnull @.str.31, i32 noundef %5)
  ret void
}